target datalayout = "e-m:e-p270:32:32-p271:32:32-p272:64:64-i64:64-i128:128-f80:128-n8:16:32:64-S128"
target triple = "x86_64-pc-linux-gnu"

@proto_register_cp2179.ett = internal global [7 x ptr] [ptr @ett_cp2179, ptr @ett_cp2179_header, ptr @ett_cp2179_addr, ptr @ett_cp2179_fc, ptr @ett_cp2179_data, ptr @ett_cp2179_subdata, ptr @ett_cp2179_event], align 16
@.str.128 = private unnamed_addr constant [16 x i8] c"CP2179 Protocol\00", align 1
@.str.129 = private unnamed_addr constant [7 x i8] c"CP2179\00", align 1
@.str.130 = private unnamed_addr constant [7 x i8] c"cp2179\00", align 1
@proto_cp2179 = internal global i32 0, align 4
@cp2179_handle = internal global ptr null, align 8
@.str.131 = private unnamed_addr constant [12 x i8] c"telnetclean\00", align 1
@.str.132 = private unnamed_addr constant [60 x i8] c"Remove extra 0xFF (IAC) bytes from Telnet-encapsulated data\00", align 1
@.str.133 = private unnamed_addr constant [100 x i8] c"Whether the SEL Protocol dissector should automatically pre-process Telnet data to remove IAC bytes\00", align 1
@cp2179_telnet_clean = internal global i8 1, align 1

; Function Attrs: null_pointer_is_valid sspstrong uwtable
define hidden void @proto_register_cp2179() #0 {
  %1 = alloca ptr, align 8
  call void @llvm.lifetime.start.p0(i64 8, ptr %1) #5
  %2 = call i32 @proto_register_protocol(ptr noundef @.str.128, ptr noundef @.str.129, ptr noundef @.str.130)
  store i32 %2, ptr @proto_cp2179, align 4
  %3 = load i32, ptr @proto_cp2179, align 4
  %4 = call ptr @register_dissector(ptr noundef @.str.130, ptr noundef @dissect_cp2179, i32 noundef %3)
  store ptr %4, ptr @cp2179_handle, align 8
  %5 = load i32, ptr @proto_cp2179, align 4
  call void @proto_register_field_array(i32 noundef %5, ptr noundef @proto_register_cp2179.hf, i32 noundef 64)
  call void @proto_register_subtree_array(ptr noundef @proto_register_cp2179.ett, i32 noundef 7)
  %6 = load i32, ptr @proto_cp2179, align 4
  %7 = call ptr @prefs_register_protocol(i32 noundef %6, ptr noundef null)
  store ptr %7, ptr %1, align 8
  %8 = load ptr, ptr %1, align 8
  call void @prefs_register_bool_preference(ptr noundef %8, ptr noundef @.str.131, ptr noundef @.str.132, ptr noundef @.str.133, ptr noundef @cp2179_telnet_clean)
  call void @llvm.lifetime.end.p0(i64 8, ptr %1) #5
  ret void
}