; Function Attrs: null_pointer_is_valid sspstrong uwtable
define hidden void @proto_register_cp2179() local_unnamed_addr #0 {
  %1 = tail call i32 @proto_register_protocol(ptr noundef nonnull @.str.128, ptr noundef nonnull @.str.129, ptr noundef nonnull @.str.130)
  store i32 %1, ptr @proto_cp2179, align 4
  %2 = tail call ptr @register_dissector(ptr noundef nonnull @.str.130, ptr noundef nonnull @dissect_cp2179, i32 noundef %1)
  store ptr %2, ptr @cp2179_handle, align 8
  %3 = load i32, ptr @proto_cp2179, align 4
  tail call void @proto_register_field_array(i32 noundef %3, ptr noundef nonnull @proto_register_cp2179.hf, i32 noundef 64)
  tail call void @proto_register_subtree_array(ptr noundef nonnull @proto_register_cp2179.ett, i32 noundef 7)
  %4 = load i32, ptr @proto_cp2179, align 4
  %5 = tail call ptr @prefs_register_protocol(i32 noundef %4, ptr noundef null)
  tail call void @prefs_register_bool_preference(ptr noundef %5, ptr noundef nonnull @.str.131, ptr noundef nonnull @.str.132, ptr noundef nonnull @.str.133, ptr noundef nonnull @cp2179_telnet_clean)
  ret void
}